(dp0
S'R4'
p1
(lp2
F0.077
aF0.869
aF0.536
aF0.65
aF0.524
aF0.625
aF0.322
aF0.662
aF0.205
aF1.0
aF0.326
aF0.214
aF0.998
aF0.208
aF0.292
aF0.683
aF0.666
aF0.357
aF0.599
aF0.857
aF0.967
aF0.665
aF0.287
aF0.079
aF0.183
aF0.807
aF0.667
aF0.508
aF0.646
aF0.458
aF0.663
aF1.0
aF0.249
aF0.227
aF0.588
aF0.665
aF0.843
aF1.0
aF0.746
aF0.557
aF0.22
aF0.646
aF0.652
aF0.509
aF0.976
aF0.748
aF0.328
aF0.994
aF0.287
aF0.242
aF0.651
aF0.848
aF0.731
aF0.658
aF0.317
aF0.993
aF0.556
aF0.496
aF0.333
aF0.546
aF0.239
aF0.603
aF0.666
aF0.331
aF1.0
aF0.664
aF0.639
aF0.429
aF0.996
aF0.703
aF0.142
aF0.312
aF0.644
aF0.666
aF0.439
aF0.499
aF0.32
aF0.999
aF0.662
aF0.344
aF0.647
aF0.998
aF0.685
aF0.636
aF0.666
aF0.641
aF0.666
aF0.665
aF0.334
aF0.817
aF0.438
aF0.072
aF0.119
aF0.726
aF0.539
aF1.0
aF0.576
aF0.2
aF0.929
aF0.365
aF0.482
aF0.258
aF0.516
aF0.667
aF0.667
aF0.991
aF0.665
aF0.374
aF0.745
aF0.675
aF0.666
aF0.991
aF0.052
aF0.494
aF0.628
aF0.605
aF1.0
aF0.645
aF0.924
aF0.973
aF0.51
aF0.741
aF0.383
aF0.103
aF0.856
aF0.333
aF0.357
aF0.182
aF0.322
aF0.665
aF0.332
aF0.665
aF0.793
aF0.745
aF0.311
aF0.176
aF0.403
aF0.737
aF0.512
aF0.653
aF1.0
aF0.605
aF1.0
aF0.622
aF0.73
aF0.321
aF0.665
aF0.666
aF0.664
aF0.257
aF0.416
aF0.099
aF0.441
aF0.754
aF0.476
aF0.444
aF0.066
aF0.409
aF0.645
aF0.696
aF0.662
aF0.333
aF1.0
aF0.73
aF0.657
aF0.121
aF0.043
aF0.384
aF0.846
aF0.27
aF0.952
aF0.509
aF0.532
aF0.233
aF0.218
aF0.299
aF1.0
aF0.648
aF0.781
aF0.711
aF0.117
aF0.667
aF0.445
aF0.545
aF0.988
aF0.789
aF1.0
aF1.0
aF0.118
aF0.202
aF0.678
aF0.499
aF0.498
aF0.698
aF0.4
aF0.61
aF0.357
aF0.41
aF0.678
aF1.0
aF0.509
aF0.667
aF0.165
aF0.607
asS'G4'
p3
(lp4
F0.032
aF0.0
aF0.479
aF0.274
aF0.043
aF0.129
aF0.314
aF0.0
aF0.11
aF0.333
aF0.015
aF0.219
aF0.322
aF0.0
aF0.29
aF0.048
aF0.332
aF0.223
aF0.299
aF0.13
aF0.124
aF0.33
aF0.286
aF0.079
aF0.187
aF0.756
aF0.333
aF0.02
aF0.347
aF0.068
aF0.345
aF0.361
aF0.171
aF0.121
aF0.423
aF0.331
aF0.344
aF0.022
aF0.499
aF0.406
aF0.126
aF0.351
aF0.306
aF0.308
aF0.876
aF0.374
aF0.127
aF0.234
aF0.275
aF0.167
aF0.313
aF0.095
aF0.475
aF0.316
aF0.316
aF0.703
aF0.253
aF0.048
aF0.333
aF0.248
aF0.128
aF0.605
aF0.332
aF0.331
aF0.639
aF0.333
aF0.303
aF0.436
aF0.498
aF0.305
aF0.008
aF0.312
aF0.333
aF0.334
aF0.249
aF0.022
aF0.327
aF0.083
aF0.335
aF0.162
aF0.313
aF0.499
aF0.37
aF0.305
aF0.334
aF0.642
aF0.334
aF0.334
aF0.334
aF0.81
aF0.194
aF0.073
aF0.103
aF0.254
aF0.249
aF0.077
aF0.083
aF0.2
aF0.43
aF0.365
aF0.413
aF0.011
aF0.017
aF0.002
aF0.333
aF0.313
aF0.332
aF0.0
aF0.384
aF0.014
aF0.334
aF0.488
aF0.049
aF0.249
aF0.29
aF0.263
aF0.498
aF0.057
aF0.0
aF0.0
aF0.334
aF0.429
aF0.106
aF0.103
aF0.498
aF0.333
aF0.133
aF0.089
aF0.326
aF0.28
aF0.332
aF0.103
aF0.178
aF0.259
aF0.312
aF0.177
aF0.242
aF0.476
aF0.068
aF0.313
aF0.332
aF0.216
aF0.499
aF0.053
aF0.28
aF0.32
aF0.331
aF0.332
aF0.333
aF0.254
aF0.138
aF0.962
aF0.444
aF0.009
aF0.906
aF0.318
aF0.072
aF0.411
aF0.311
aF0.361
aF0.33
aF0.335
aF0.526
aF0.34
aF0.323
aF0.122
aF0.043
aF0.121
aF0.785
aF0.086
aF0.435
aF0.002
aF0.238
aF0.226
aF0.212
aF0.299
aF0.197
aF0.316
aF0.031
aF0.425
aF0.118
aF0.331
aF0.11
aF0.344
aF0.168
aF0.099
aF0.091
aF0.059
aF0.018
aF0.115
aF0.365
aF0.499
aF0.249
aF0.333
aF0.387
aF0.607
aF0.327
aF0.096
aF0.345
aF0.066
aF0.351
aF0.333
aF0.0
aF0.372
asS'G3'
p5
(lp6
F0.345
aF0.0
aF0.001
aF0.055
aF0.003
aF0.003
aF0.677
aF0.332
aF0.005
aF0.0
aF0.666
aF0.572
aF0.002
aF0.0
aF0.003
aF0.303
aF0.0
aF0.059
aF0.4
aF0.03
aF0.464
aF0.004
aF0.004
aF0.755
aF0.691
aF0.008
aF0.333
aF0.491
aF0.344
aF0.014
aF0.004
aF0.002
aF0.007
aF0.02
aF0.211
aF0.001
aF0.002
aF0.002
aF0.002
aF0.216
aF0.009
aF0.008
aF0.021
aF0.001
aF0.005
aF0.002
aF0.672
aF0.0
aF0.71
aF0.008
aF0.005
aF0.005
aF0.026
aF0.017
aF0.011
aF0.0
aF0.313
aF0.506
aF0.333
aF0.305
aF0.658
aF0.0
aF0.0
aF0.337
aF0.004
aF0.0
aF0.005
aF0.005
aF0.003
aF0.012
aF0.034
aF0.679
aF0.332
aF0.332
aF0.501
aF0.007
aF0.002
aF0.004
aF0.329
aF0.006
aF0.67
aF0.002
aF0.313
aF0.005
aF0.334
aF0.006
aF0.332
aF0.337
aF0.334
aF0.001
aF0.005
aF0.927
aF0.005
aF0.02
aF0.002
aF0.009
aF0.001
aF0.0
aF0.071
aF0.301
aF0.016
aF0.251
aF0.005
aF0.331
aF0.333
aF0.008
aF0.004
aF0.331
aF0.016
aF0.013
aF0.332
aF0.006
aF0.006
aF0.252
aF0.02
aF0.015
aF0.002
aF0.007
aF0.207
aF0.0
aF0.006
aF0.257
aF0.325
aF0.001
aF0.003
aF0.0
aF0.301
aF0.006
aF0.005
aF0.333
aF0.665
aF0.008
aF0.009
aF0.012
aF0.002
aF0.823
aF0.001
aF0.001
aF0.004
aF0.004
aF0.0
aF0.001
aF0.002
aF0.013
aF0.001
aF0.002
aF0.335
aF0.001
aF0.0
aF0.497
aF0.284
aF0.001
aF0.306
aF0.001
aF0.048
aF0.533
aF0.01
aF0.004
aF0.354
aF0.028
aF0.005
aF0.333
aF0.004
aF0.002
aF0.004
aF0.007
aF0.957
aF0.06
aF0.004
aF0.261
aF0.026
aF0.392
aF0.005
aF0.01
aF0.003
aF0.002
aF0.003
aF0.002
aF0.002
aF0.004
aF0.583
aF0.004
aF0.002
aF0.008
aF0.001
aF0.003
aF0.002
aF0.002
aF0.862
aF0.72
aF0.007
aF0.002
aF0.251
aF0.01
aF0.015
aF0.015
aF0.626
aF0.319
aF0.004
aF0.002
aF0.367
aF0.0
aF0.749
aF0.283
asS'R2'
p7
(lp8
F0.003
aF0.006
aF0.001
aF0.006
aF0.001
aF0.003
aF0.664
aF0.006
aF0.006
aF0.0
aF0.006
aF0.0
aF0.0
aF0.002
aF0.005
aF0.297
aF0.001
aF0.029
aF0.0
aF0.021
aF0.001
aF0.0
aF0.005
aF0.746
aF0.005
aF0.005
aF0.0
aF0.002
aF0.005
aF0.021
aF0.001
aF0.0
aF0.003
aF0.013
aF0.007
aF0.001
aF0.002
aF0.0
aF0.004
aF0.02
aF0.006
aF0.004
aF0.003
aF0.001
aF0.014
aF0.001
aF0.002
aF0.0
aF0.356
aF0.011
aF0.005
aF0.001
aF0.023
aF0.0
aF0.008
aF0.0
aF0.016
aF0.237
aF0.333
aF0.005
aF0.662
aF0.004
aF0.001
aF0.003
aF0.0
aF0.0
aF0.001
aF0.002
aF0.0
aF0.005
aF0.036
aF0.677
aF0.002
aF0.0
aF0.004
aF0.005
aF0.001
aF0.0
aF0.0
aF0.003
aF0.003
aF0.0
aF0.012
aF0.003
aF0.0
aF0.007
aF0.0
aF0.001
aF0.005
aF0.0
aF0.004
aF0.014
aF0.002
aF0.005
aF0.001
aF0.0
aF0.005
aF0.0
aF0.003
aF0.006
aF0.002
aF0.004
aF0.005
aF0.0
aF0.0
aF0.0
aF0.001
aF0.008
aF0.003
aF0.006
aF0.0
aF0.001
aF0.002
aF0.002
aF0.015
aF0.012
aF0.0
aF0.003
aF0.005
aF0.002
aF0.005
aF0.006
aF0.003
aF0.001
aF0.003
aF0.002
aF0.003
aF0.005
aF0.003
aF0.0
aF0.003
aF0.006
aF0.001
aF0.002
aF0.002
aF0.821
aF0.001
aF0.0
aF0.003
aF0.002
aF0.0
aF0.001
aF0.0
aF0.009
aF0.002
aF0.676
aF0.001
aF0.0
aF0.0
aF0.005
aF0.003
aF0.862
aF0.003
aF0.001
aF0.467
aF0.004
aF0.007
aF0.004
aF0.001
aF0.008
aF0.002
aF0.0
aF0.0
aF0.003
aF0.007
aF0.005
aF0.948
aF0.003
aF0.004
aF0.001
aF0.008
aF0.028
aF0.001
aF0.0
aF0.033
aF0.0
aF0.0
aF0.001
aF0.002
aF0.0
aF0.004
aF0.004
aF0.0
aF0.001
aF0.0
aF0.001
aF0.0
aF0.0
aF0.01
aF0.712
aF0.006
aF0.0
aF0.0
aF0.003
aF0.017
aF0.014
aF0.008
aF0.005
aF0.002
aF0.0
aF0.025
aF0.0
aF0.006
aF0.002
asS'G1'
p9
(lp10
F0.61
aF1.0
aF0.059
aF0.651
aF0.951
aF0.758
aF0.0
aF0.665
aF0.878
aF0.662
aF0.312
aF0.208
aF0.675
aF0.208
aF0.702
aF0.636
aF0.665
aF0.167
aF0.299
aF0.825
aF0.4
aF0.33
aF0.704
aF0.166
aF0.12
aF0.229
aF0.333
aF0.487
aF0.306
aF0.904
aF0.319
aF0.635
aF0.815
aF0.83
aF0.363
aF0.665
aF0.653
aF0.973
aF0.497
aF0.156
aF0.856
aF0.632
aF0.666
aF0.69
aF0.001
aF0.377
aF0.199
aF0.761
aF0.015
aF0.164
aF0.673
aF0.897
aF0.27
aF0.664
aF0.003
aF0.291
aF0.307
aF0.435
aF0.333
aF0.303
aF0.198
aF0.389
aF0.665
aF0.0
aF0.353
aF0.667
aF0.358
aF0.0
aF0.498
aF0.398
aF0.943
aF0.001
aF0.334
aF0.332
aF0.249
aF0.958
aF0.0
aF0.908
aF0.332
aF0.831
aF0.014
aF0.499
aF0.308
aF0.664
aF0.0
aF0.346
aF0.332
aF0.0
aF0.329
aF0.188
aF0.523
aF0.0
aF0.599
aF0.7
aF0.458
aF0.906
aF0.915
aF0.8
aF0.499
aF0.33
aF0.571
aF0.738
aF0.974
aF0.333
aF0.333
aF0.671
aF0.329
aF0.667
aF0.583
aF0.667
aF0.332
aF0.503
aF0.0
aF0.499
aF0.342
aF0.364
aF0.5
aF0.599
aF0.761
aF0.982
aF0.389
aF0.311
aF0.563
aF0.889
aF0.492
aF0.331
aF0.351
aF0.898
aF0.0
aF0.0
aF0.0
aF0.552
aF0.812
aF0.482
aF0.016
aF0.0
aF0.462
aF0.261
aF0.924
aF0.675
aF0.665
aF0.782
aF0.499
aF0.578
aF0.448
aF0.676
aF0.332
aF0.665
aF0.664
aF0.0
aF0.575
aF0.036
aF0.0
aF0.989
aF0.025
aF0.147
aF0.0
aF0.0
aF0.332
aF0.573
aF0.493
aF0.0
aF0.468
aF0.39
aF0.339
aF0.0
aF0.0
aF0.508
aF0.207
aF0.454
aF0.52
aF0.361
aF0.591
aF0.368
aF0.403
aF0.0
aF0.8
aF0.664
aF0.966
aF0.285
aF0.298
aF0.66
aF0.555
aF0.196
aF0.829
aF0.895
aF0.904
aF0.938
aF0.098
aF0.16
aF0.622
aF0.0
aF0.499
aF0.649
aF0.566
aF0.36
aF0.035
aF0.58
aF0.647
aF0.931
aF0.275
aF0.664
aF0.157
aF0.335
asS'R3'
p11
(lp12
F0.255
aF0.008
aF0.003
aF0.025
aF0.004
aF0.007
aF0.014
aF0.003
aF0.004
aF0.0
aF0.004
aF0.005
aF0.002
aF0.002
aF0.001
aF0.019
aF0.0
aF0.034
aF0.001
aF0.014
aF0.032
aF0.002
aF0.003
aF0.009
aF0.005
aF0.013
aF0.0
aF0.0
aF0.009
aF0.022
aF0.003
aF0.0
aF0.011
aF0.016
aF0.003
aF0.001
aF0.001
aF0.0
aF0.002
aF0.006
aF0.007
aF0.012
aF0.005
aF0.003
aF0.003
aF0.002
aF0.002
aF0.006
aF0.003
aF0.011
aF0.005
aF0.002
aF0.017
aF0.008
aF0.003
aF0.007
aF0.007
aF0.006
aF0.0
aF0.007
aF0.018
aF0.002
aF0.0
aF0.002
aF0.0
aF0.002
aF0.003
aF0.011
aF0.004
aF0.013
aF0.015
aF0.009
aF0.008
aF0.001
aF0.005
aF0.008
aF0.007
aF0.001
aF0.006
aF0.001
aF0.003
aF0.002
aF0.011
aF0.002
aF0.001
aF0.004
aF0.001
aF0.001
aF0.003
aF0.183
aF0.005
aF0.013
aF0.287
aF0.01
aF0.003
aF0.0
aF0.005
aF0.8
aF0.003
aF0.001
aF0.419
aF0.004
aF0.007
aF0.0
aF0.0
aF0.009
aF0.001
aF0.012
aF0.008
aF0.003
aF0.001
aF0.008
aF0.002
aF0.007
aF0.018
aF0.027
aF0.0
aF0.02
aF0.067
aF0.008
aF0.007
aF0.002
aF0.005
aF0.001
aF0.008
aF0.333
aF0.007
aF0.01
aF0.008
aF0.002
aF0.0
aF0.0
aF0.004
aF0.004
aF0.001
aF0.002
aF0.005
aF0.002
aF0.005
aF0.006
aF0.0
aF0.003
aF0.0
aF0.019
aF0.002
aF0.002
aF0.001
aF0.001
aF0.002
aF0.009
aF0.005
aF0.004
aF0.003
aF0.005
aF0.031
aF0.003
aF0.007
aF0.003
aF0.002
aF0.047
aF0.004
aF0.002
aF0.0
aF0.003
aF0.002
aF0.005
aF0.001
aF0.003
aF0.008
aF0.006
aF0.037
aF0.338
aF0.006
aF0.373
aF0.329
aF0.002
aF0.0
aF0.001
aF0.003
aF0.004
aF0.003
aF0.0
aF0.002
aF0.003
aF0.012
aF0.007
aF0.0
aF0.0
aF0.043
aF0.017
aF0.005
aF0.002
aF0.004
aF0.02
aF0.415
aF0.01
aF0.01
aF0.007
aF0.004
aF0.0
aF0.031
aF0.0
aF0.007
aF0.016
asS'B2'
p13
(lp14
F0.012
aF0.0
aF0.002
aF0.034
aF0.001
aF0.004
aF0.003
aF0.006
aF0.015
aF0.004
aF0.343
aF0.207
aF0.002
aF0.802
aF0.661
aF0.326
aF0.326
aF0.017
aF0.4
aF0.075
aF0.009
aF0.0
aF0.012
aF0.0
aF0.127
aF0.007
aF0.333
aF0.488
aF0.01
aF0.024
aF0.334
aF0.002
aF0.012
aF0.731
aF0.016
aF0.329
aF0.001
aF0.0
aF0.002
aF0.008
aF0.749
aF0.317
aF0.011
aF0.012
aF0.004
aF0.243
aF0.002
aF0.005
aF0.002
aF0.049
aF0.342
aF0.003
aF0.022
aF0.008
aF0.006
aF0.007
aF0.006
aF0.02
aF0.005
aF0.016
aF0.084
aF0.366
aF0.001
aF0.336
aF0.004
aF0.0
aF0.001
aF0.0
aF0.002
aF0.285
aF0.803
aF0.009
aF0.326
aF0.334
aF0.502
aF0.008
aF0.0
aF0.004
aF0.332
aF0.0
aF0.007
aF0.0
aF0.039
aF0.01
aF0.334
aF0.0
aF0.332
aF0.334
aF0.01
aF0.001
aF0.004
aF0.025
aF0.003
aF0.013
aF0.003
aF0.004
aF0.416
aF0.0
aF0.066
aF0.297
aF0.099
aF0.251
aF0.039
aF0.324
aF0.002
aF0.0
aF0.0
aF0.0
aF0.018
aF0.001
aF0.001
aF0.004
aF0.003
aF0.497
aF0.35
aF0.023
aF0.0
aF0.01
aF0.045
aF0.0
aF0.273
aF0.003
aF0.589
aF0.066
aF0.029
aF0.002
aF0.299
aF0.778
aF0.004
aF0.001
aF0.665
aF0.008
aF0.203
aF0.004
aF0.002
aF0.002
aF0.004
aF0.003
aF0.002
aF0.003
aF0.003
aF0.008
aF0.002
aF0.004
aF0.004
aF0.004
aF0.656
aF0.334
aF0.002
aF0.017
aF0.277
aF0.001
aF0.305
aF0.221
aF0.033
aF0.001
aF0.013
aF0.0
aF0.301
aF0.286
aF0.176
aF0.002
aF0.008
aF0.007
aF0.005
aF0.005
aF0.0
aF0.311
aF0.068
aF0.008
aF0.004
aF0.106
aF0.003
aF0.005
aF0.015
aF0.008
aF0.001
aF0.006
aF0.004
aF0.003
aF0.005
aF0.333
aF0.009
aF0.447
aF0.002
aF0.003
aF0.003
aF0.002
aF0.926
aF0.067
aF0.002
aF0.0
aF0.249
aF0.261
aF0.197
aF0.004
aF0.012
aF0.308
aF0.296
aF0.0
aF0.011
aF0.002
aF0.0
aF0.002
asS'B4'
p15
(lp16
F0.027
aF0.0
aF0.479
aF0.002
aF0.0
aF0.176
aF0.976
aF0.0
aF0.113
aF0.333
aF0.345
aF0.565
aF0.322
aF0.0
aF0.0
aF0.048
aF0.0
aF0.212
aF0.0
aF0.134
aF0.123
aF0.0
aF0.041
aF0.83
aF0.011
aF0.212
aF0.333
aF0.0
aF0.343
aF0.068
aF0.0
aF0.361
aF0.158
aF0.106
aF0.207
aF0.0
aF0.344
aF0.0
aF0.0
aF0.397
aF0.13
aF0.351
aF0.319
aF0.308
aF0.874
aF0.374
aF0.669
aF0.234
aF0.629
aF0.087
aF0.313
aF0.017
aF0.008
aF0.308
aF0.313
aF0.703
aF0.371
aF0.247
aF0.665
aF0.004
aF0.764
aF0.605
aF0.332
aF0.323
aF0.639
aF0.0
aF0.0
aF0.44
aF0.498
aF0.0
aF0.035
aF0.971
aF0.0
aF0.0
aF0.077
aF0.021
aF0.993
aF0.082
aF0.335
aF0.163
aF0.316
aF0.499
aF0.363
aF0.304
aF0.332
aF0.658
aF0.332
aF0.332
aF0.0
aF0.811
aF0.194
aF0.869
aF0.103
aF0.214
aF0.249
aF0.0
aF0.084
aF0.2
aF0.429
aF0.365
aF0.416
aF0.011
aF0.0
aF0.0
aF0.667
aF0.0
aF0.332
aF0.0
aF0.354
aF0.013
aF0.0
aF0.489
aF0.0
aF0.0
aF0.287
aF0.003
aF0.498
aF0.0
aF0.0
aF0.0
aF0.049
aF0.1
aF0.081
aF0.022
aF0.499
aF0.333
aF0.0
aF0.091
aF0.979
aF0.276
aF0.332
aF0.103
aF0.179
aF0.259
aF0.312
aF0.82
aF0.24
aF0.476
aF0.016
aF0.313
aF0.332
aF0.176
aF0.499
aF0.02
aF0.547
aF0.32
aF0.0
aF0.0
aF0.333
aF0.473
aF0.029
aF0.893
aF0.238
aF0.009
aF0.902
aF0.0
aF0.069
aF0.441
aF0.0
aF0.359
aF0.165
aF0.665
aF0.526
aF0.341
aF0.323
aF0.045
aF1.0
aF0.121
aF0.786
aF0.073
aF0.007
aF0.0
aF0.24
aF0.197
aF0.063
aF0.0
aF0.197
aF0.315
aF0.033
aF0.41
aF0.288
aF0.331
aF0.11
aF0.024
aF0.168
aF0.1
aF0.092
aF0.059
aF0.015
aF0.088
aF0.038
aF0.002
aF0.249
aF0.34
aF0.389
aF0.59
aF0.328
aF0.0
aF0.015
aF0.0
aF0.35
aF0.333
aF0.0
aF0.117
asS'B1'
p17
(lp18
F0.949
aF1.0
aF0.518
aF0.619
aF0.999
aF0.811
aF0.019
aF0.668
aF0.091
aF0.662
aF0.308
aF0.217
aF0.674
aF0.198
aF0.332
aF0.617
aF0.674
aF0.226
aF0.6
aF0.772
aF0.847
aF1.0
aF0.249
aF0.166
aF0.855
aF0.775
aF0.333
aF0.512
aF0.642
aF0.398
aF0.666
aF0.635
aF0.093
aF0.122
aF0.588
aF0.669
aF0.499
aF1.0
aF0.746
aF0.586
aF0.089
aF0.304
aF0.339
aF0.2
aF0.118
aF0.374
aF0.328
aF0.76
aF0.367
aF0.859
aF0.34
aF0.98
aF0.752
aF0.677
aF0.007
aF0.291
aF0.617
aF0.731
aF0.33
aF0.843
aF0.14
aF0.0
aF0.331
aF0.331
aF0.353
aF1.0
aF0.999
aF0.0
aF0.496
aF0.715
aF0.145
aF0.009
aF0.674
aF0.666
aF0.417
aF0.49
aF0.0
aF0.91
aF0.332
aF0.181
aF0.664
aF0.499
aF0.58
aF0.683
aF0.332
aF0.0
aF0.332
aF0.332
aF0.99
aF0.187
aF0.797
aF0.069
aF0.889
aF0.521
aF0.745
aF0.996
aF0.5
aF0.8
aF0.499
aF0.036
aF0.473
aF0.738
aF0.525
aF0.676
aF0.331
aF1.0
aF0.666
aF1.0
aF0.379
aF0.985
aF0.999
aF0.502
aF0.997
aF0.501
aF0.352
aF0.64
aF0.5
aF0.66
aF0.952
aF1.0
aF0.673
aF0.895
aF0.306
aF0.076
aF0.341
aF0.331
aF0.4
aF0.095
aF0.004
aF0.719
aF0.0
aF0.551
aF0.61
aF0.733
aF0.685
aF0.175
aF0.754
aF0.259
aF0.981
aF0.346
aF0.665
aF0.419
aF0.496
aF0.97
aF0.447
aF0.674
aF0.344
aF0.665
aF0.331
aF0.501
aF0.694
aF0.104
aF0.445
aF0.749
aF0.055
aF0.999
aF0.911
aF0.0
aF0.699
aF0.341
aF0.494
aF0.33
aF0.462
aF0.386
aF0.334
aF0.545
aF0.0
aF0.357
aF0.14
aF0.721
aF0.983
aF0.894
aF0.755
aF0.793
aF0.551
aF0.301
aF0.8
aF0.678
aF0.751
aF0.583
aF0.705
aF0.331
aF0.663
aF0.528
aF0.829
aF0.895
aF0.904
aF0.937
aF0.055
aF0.121
aF0.958
aF0.501
aF0.499
aF0.368
aF0.397
aF0.044
aF0.35
aF0.692
aF0.664
aF1.0
aF0.636
aF0.664
aF1.0
aF0.879
asS'File'
p19
(lp20
S'Afghanistan.jpg'
p21
aS'Albania.jpg'
p22
aS'Algeria.jpg'
p23
aS'Andorra.jpg'
p24
aS'Angola.jpg'
p25
aS'Antigua_and_Barbuda.jpg'
p26
aS'Argentina.jpg'
p27
aS'Armenia.jpg'
p28
aS'Australia.jpg'
p29
aS'Austria.jpg'
p30
aS'Azerbaijan.jpg'
p31
aS'Bahamas.jpg'
p32
aS'Bahrain.jpg'
p33
aS'Bangladesh.jpg'
p34
aS'Barbados.jpg'
p35
aS'Belarus.jpg'
p36
aS'Belgium.jpg'
p37
aS'Belize.jpg'
p38
aS'Benin.jpg'
p39
aS'Bermuda.jpg'
p40
aS'Bhutan.jpg'
p41
aS'Bolivia.jpg'
p42
aS'Bosnia_and_Herzegovina.jpg'
p43
aS'Botswana.jpg'
p44
aS'Brazil.jpg'
p45
aS'Brunei.jpg'
p46
aS'Bulgaria.jpg'
p47
aS'Burkina_Faso.jpg'
p48
aS'Burundi.jpg'
p49
aS'Cambodia.jpg'
p50
aS'Cameroon.jpg'
p51
aS'Canada.jpg'
p52
aS'Cape_Verde.jpg'
p53
aS'Cayman_Islands.jpg'
p54
aS'Central_African_Republic.jpg'
p55
aS'Chad.jpg'
p56
aS'Chile.jpg'
p57
aS'China.jpg'
p58
aS'Colombia.jpg'
p59
aS'Comoros.jpg'
p60
aS'Cook_Islands.jpg'
p61
aS'Costa_Rica.jpg'
p62
aS'Croatia.jpg'
p63
aS'Cuba.jpg'
p64
aS'Cyprus.jpg'
p65
aS'Czech_Republic.jpg'
p66
aS'Democratic_Republic_of_the_Congo.jpg'
p67
aS'Denmark.jpg'
p68
aS'Djibouti.jpg'
p69
aS'Dominica.jpg'
p70
aS'Dominican_Republic.jpg'
p71
aS'East_Timor.jpg'
p72
aS'Ecuador.jpg'
p73
aS'Egypt.jpg'
p74
aS'El_Salvador.jpg'
p75
aS'England.jpg'
p76
aS'Equatorial_Guinea.jpg'
p77
aS'Eritrea.jpg'
p78
aS'Estonia.jpg'
p79
aS'Ethiopia.jpg'
p80
aS'Fiji.jpg'
p81
aS'Finland.jpg'
p82
aS'France.jpg'
p83
aS'Gabon.jpg'
p84
aS'Georgia.jpg'
p85
aS'Germany.jpg'
p86
aS'Ghana.jpg'
p87
aS'Greece.jpg'
p88
aS'Greenland.jpg'
p89
aS'Grenada.jpg'
p90
aS'Guam.jpg'
p91
aS'Guatemala.jpg'
p92
aS'Guinea-Bissau.jpg'
p93
aS'Guinea.jpg'
p94
aS'Guyana.jpg'
p95
aS'Haiti.jpg'
p96
aS'Honduras.jpg'
p97
aS'Hong_Kong.jpg'
p98
aS'Hungary.jpg'
p99
aS'Iceland.jpg'
p100
aS'India.jpg'
p101
aS'Indonesia.jpg'
p102
aS'Iran.jpg'
p103
aS'Iraq.jpg'
p104
aS'Ireland.jpg'
p105
aS'Israel.jpg'
p106
aS'Italy.jpg'
p107
aS'Ivorycoast.jpg'
p108
aS'Jamaica.jpg'
p109
aS'Japan.jpg'
p110
aS'Jordan.jpg'
p111
aS'Kazakhstan.jpg'
p112
aS'Kenya.jpg'
p113
aS'Kiribati.jpg'
p114
aS'Kuwait.jpg'
p115
aS'Kyrgyzstan.jpg'
p116
aS'Laos.jpg'
p117
aS'Latvia.jpg'
p118
aS'Lebanon.jpg'
p119
aS'Lesotho.jpg'
p120
aS'Liberia.jpg'
p121
aS'Libya.jpg'
p122
aS'Liechtenstein.jpg'
p123
aS'Lithuania.jpg'
p124
aS'Luxembourg.jpg'
p125
aS'Macedonia.jpg'
p126
aS'Madagascar.jpg'
p127
aS'Malawi.jpg'
p128
aS'Malaysia.jpg'
p129
aS'Maldives.jpg'
p130
aS'Mali.jpg'
p131
aS'Malta.jpg'
p132
aS'Mauritania.jpg'
p133
aS'Mauritius.jpg'
p134
aS'Mexico.jpg'
p135
aS'Moldova.jpg'
p136
aS'Monaco.jpg'
p137
aS'Mongolia.jpg'
p138
aS'Montenegro.jpg'
p139
aS'Morocco.jpg'
p140
aS'Mozambique.jpg'
p141
aS'Myanmar.jpg'
p142
aS'Namibia.jpg'
p143
aS'Nauru.jpg'
p144
aS'Nepal.jpg'
p145
aS'Netherlands.jpg'
p146
aS'New_Caledonia.jpg'
p147
aS'New_Zealand.jpg'
p148
aS'Nicaragua.jpg'
p149
aS'Niger.jpg'
p150
aS'Nigeria.jpg'
p151
aS'North_Korea.jpg'
p152
aS'Norway.jpg'
p153
aS'Oman.jpg'
p154
aS'Pakistan.jpg'
p155
aS'Palau.jpg'
p156
aS'Palestine.jpg'
p157
aS'Panama.jpg'
p158
aS'Papua_New_Guinea.jpg'
p159
aS'Paraguay.jpg'
p160
aS'Peru.jpg'
p161
aS'Philippines.jpg'
p162
aS'Poland.jpg'
p163
aS'Portugal.jpg'
p164
aS'Puerto_Rico.jpg'
p165
aS'Qatar.jpg'
p166
aS'Republic_of_the_Congo.jpg'
p167
aS'Romania.jpg'
p168
aS'Russia.jpg'
p169
aS'Rwanda.jpg'
p170
aS'Saint_Kitts_and_Nevis.jpg'
p171
aS'Saint_Lucia.jpg'
p172
aS'Saint_Vincent_and_the_Grenadines.jpg'
p173
aS'Samoa.jpg'
p174
aS'San_Marino.jpg'
p175
aS'Sao_Tome_and_Principe.jpg'
p176
aS'Saudi_Arabia.jpg'
p177
aS'Scotland.jpg'
p178
aS'Senegal.jpg'
p179
aS'Serbia.jpg'
p180
aS'Seychelles.jpg'
p181
aS'Sierra_Leone.jpg'
p182
aS'Singapore.jpg'
p183
aS'Slovakia.jpg'
p184
aS'Slovenia.jpg'
p185
aS'Solomon_Islands.jpg'
p186
aS'Somalia.jpg'
p187
aS'South_Africa.jpg'
p188
aS'South_Korea.jpg'
p189
aS'South_Sudan.jpg'
p190
aS'Spain.jpg'
p191
aS'Sri_Lanka.jpg'
p192
aS'Sudan.jpg'
p193
aS'Suriname.jpg'
p194
aS'Swaziland.jpg'
p195
aS'Sweden.jpg'
p196
aS'Switzerland.jpg'
p197
aS'Syria.jpg'
p198
aS'Taiwan.jpg'
p199
aS'Tajikistan.jpg'
p200
aS'Tanzania.jpg'
p201
aS'Thailand.jpg'
p202
aS'theGambia.jpg'
p203
aS'Togo.jpg'
p204
aS'Tonga.jpg'
p205
aS'Trinidad_and_Tobago.jpg'
p206
aS'Tunisia.jpg'
p207
aS'Turkey.jpg'
p208
aS'Turkmenistan.jpg'
p209
aS'Tuvalu.jpg'
p210
aS'Uganda.jpg'
p211
aS'Ukraine.jpg'
p212
aS'United_Arab_Emirates.jpg'
p213
aS'United_Kingdom.jpg'
p214
aS'United_States.jpg'
p215
aS'Uruguay.jpg'
p216
aS'Uzbekistan.jpg'
p217
aS'Vanuatu.jpg'
p218
aS'Venezuela.jpg'
p219
aS'Vietnam.jpg'
p220
aS'Wales.jpg'
p221
aS'Yemen.jpg'
p222
aS'Zambia.jpg'
p223
aS'Zimbabwe.jpg'
p224
asS'B3'
p225
(lp226
F0.012
aF0.0
aF0.001
aF0.345
aF0.0
aF0.009
aF0.002
aF0.326
aF0.78
aF0.0
aF0.004
aF0.011
aF0.002
aF0.0
aF0.007
aF0.009
aF0.0
aF0.546
aF0.0
aF0.019
aF0.022
aF0.0
aF0.699
aF0.004
aF0.007
aF0.005
aF0.0
aF0.0
aF0.005
aF0.511
aF0.0
aF0.002
aF0.737
aF0.04
aF0.188
aF0.001
aF0.156
aF0.0
aF0.252
aF0.01
aF0.032
aF0.028
aF0.331
aF0.48
aF0.004
aF0.008
aF0.002
aF0.001
aF0.002
aF0.004
aF0.005
aF0.0
aF0.219
aF0.008
aF0.674
aF0.0
aF0.006
aF0.002
aF0.0
aF0.137
aF0.012
aF0.028
aF0.335
aF0.01
aF0.004
aF0.0
aF0.0
aF0.56
aF0.004
aF0.0
aF0.017
aF0.011
aF0.0
aF0.0
aF0.005
aF0.481
aF0.007
aF0.004
aF0.0
aF0.656
aF0.012
aF0.002
aF0.018
aF0.004
aF0.001
aF0.342
aF0.003
aF0.001
aF0.0
aF0.001
aF0.005
aF0.038
aF0.005
aF0.252
aF0.002
aF0.0
aF0.001
aF0.0
aF0.006
aF0.301
aF0.012
aF0.001
aF0.436
aF0.0
aF0.0
aF0.0
aF0.001
aF0.0
aF0.249
aF0.001
aF0.0
aF0.006
aF0.0
aF0.002
aF0.012
aF0.334
aF0.002
aF0.329
aF0.003
aF0.0
aF0.006
aF0.002
aF0.024
aF0.836
aF0.13
aF0.333
aF0.3
aF0.037
aF0.012
aF0.004
aF0.003
aF0.337
aF0.008
aF0.004
aF0.001
aF0.003
aF0.003
aF0.261
aF0.001
aF0.337
aF0.0
aF0.397
aF0.002
aF0.005
aF0.001
aF0.002
aF0.0
aF0.001
aF0.333
aF0.009
aF0.001
aF0.002
aF0.012
aF0.021
aF0.01
aF0.0
aF0.008
aF0.559
aF0.0
aF0.014
aF0.165
aF0.002
aF0.004
aF0.267
aF0.337
aF0.404
aF0.0
aF0.212
aF0.006
aF0.198
aF0.006
aF0.0
aF0.003
aF0.004
aF0.371
aF0.691
aF0.003
aF0.001
aF0.212
aF0.004
aF0.002
aF0.004
aF0.218
aF0.001
aF0.001
aF0.003
aF0.002
aF0.002
aF0.005
aF0.724
aF0.003
aF0.497
aF0.002
aF0.031
aF0.017
aF0.363
aF0.31
aF0.0
aF0.024
aF0.0
aF0.004
aF0.0
aF0.0
aF0.002
asS'G2'
p227
(lp228
F0.014
aF0.0
aF0.461
aF0.02
aF0.003
aF0.11
aF0.009
aF0.003
aF0.007
aF0.004
aF0.007
aF0.001
aF0.002
aF0.792
aF0.005
aF0.013
aF0.003
aF0.551
aF0.002
aF0.015
aF0.013
aF0.335
aF0.006
aF0.0
aF0.003
aF0.007
aF0.0
aF0.002
aF0.003
aF0.014
aF0.333
aF0.002
aF0.007
aF0.03
aF0.003
aF0.003
aF0.002
aF0.003
aF0.002
aF0.222
aF0.01
aF0.009
aF0.007
aF0.001
aF0.118
aF0.247
aF0.002
aF0.005
aF0.0
aF0.661
aF0.008
aF0.003
aF0.228
aF0.002
aF0.67
aF0.007
aF0.127
aF0.011
aF0.002
aF0.143
aF0.015
aF0.006
aF0.003
aF0.332
aF0.004
aF0.0
aF0.333
aF0.559
aF0.001
aF0.285
aF0.015
aF0.008
aF0.001
aF0.001
aF0.001
aF0.013
aF0.672
aF0.005
aF0.003
aF0.001
aF0.003
aF0.0
aF0.008
aF0.025
aF0.332
aF0.006
aF0.001
aF0.329
aF0.002
aF0.001
aF0.277
aF0.0
aF0.292
aF0.026
aF0.291
aF0.009
aF0.001
aF0.0
aF0.0
aF0.003
aF0.001
aF0.001
aF0.005
aF0.333
aF0.0
aF0.008
aF0.335
aF0.002
aF0.017
aF0.306
aF0.001
aF0.003
aF0.945
aF0.0
aF0.348
aF0.358
aF0.0
aF0.336
aF0.032
aF0.018
aF0.272
aF0.002
aF0.006
aF0.007
aF0.008
aF0.336
aF0.216
aF0.008
aF0.668
aF0.386
aF0.003
aF0.337
aF0.001
aF0.247
aF0.671
aF0.0
aF0.295
aF0.262
aF0.003
aF0.008
aF0.003
aF0.002
aF0.0
aF0.356
aF0.27
aF0.002
aF0.002
aF0.001
aF0.002
aF0.249
aF0.003
aF0.001
aF0.25
aF0.001
aF0.021
aF0.002
aF0.918
aF0.584
aF0.002
aF0.038
aF0.172
aF0.333
aF0.002
aF0.267
aF0.335
aF0.871
aF0.0
aF0.311
aF0.004
aF0.199
aF0.018
aF0.244
aF0.166
aF0.396
aF0.382
aF0.699
aF0.001
aF0.018
aF0.002
aF0.285
aF0.001
aF0.004
aF0.333
aF0.452
aF0.002
aF0.003
aF0.002
aF0.002
aF0.023
aF0.006
aF0.006
aF0.499
aF0.0
aF0.007
aF0.033
aF0.018
aF0.012
aF0.005
aF0.004
aF0.001
aF0.007
aF0.002
aF0.093
aF0.01
asS'R1'
p229
(lp230
F0.665
aF0.117
aF0.46
aF0.319
aF0.47
aF0.366
aF0.0
aF0.329
aF0.786
aF0.0
aF0.665
aF0.781
aF0.0
aF0.789
aF0.701
aF0.001
aF0.332
aF0.581
aF0.4
aF0.108
aF0.0
aF0.333
aF0.705
aF0.166
aF0.807
aF0.174
aF0.333
aF0.489
aF0.34
aF0.499
aF0.332
aF0.0
aF0.737
aF0.745
aF0.402
aF0.332
aF0.154
aF0.0
aF0.247
aF0.417
aF0.768
aF0.338
aF0.34
aF0.487
aF0.007
aF0.249
aF0.668
aF0.0
aF0.354
aF0.737
aF0.339
aF0.149
aF0.228
aF0.333
aF0.671
aF0.0
aF0.421
aF0.261
aF0.335
aF0.442
aF0.081
aF0.391
aF0.332
aF0.664
aF0.0
aF0.333
aF0.358
aF0.558
aF0.0
aF0.279
aF0.806
aF0.001
aF0.346
aF0.332
aF0.551
aF0.487
aF0.672
aF0.0
aF0.332
aF0.651
aF0.348
aF0.0
aF0.292
aF0.359
aF0.332
aF0.347
aF0.332
aF0.332
aF0.658
aF0.0
aF0.553
aF0.902
aF0.592
aF0.259
aF0.457
aF0.0
aF0.413
aF0.0
aF0.065
aF0.628
aF0.097
aF0.735
aF0.472
aF0.333
aF0.333
aF0.0
aF0.332
aF0.606
aF0.244
aF0.317
aF0.332
aF0.0
aF0.944
aF0.497
aF0.339
aF0.357
aF0.0
aF0.332
aF0.005
aF0.017
aF0.479
aF0.251
aF0.608
aF0.895
aF0.133
aF0.331
aF0.633
aF0.802
aF0.667
aF0.333
aF0.665
aF0.329
aF0.202
aF0.249
aF0.686
aF0.001
aF0.59
aF0.261
aF0.481
aF0.339
aF0.0
aF0.391
aF0.0
aF0.351
aF0.266
aF0.0
aF0.332
aF0.332
aF0.333
aF0.729
aF0.576
aF0.036
aF0.553
aF0.24
aF0.027
aF0.55
aF0.92
aF0.584
aF0.352
aF0.248
aF0.332
aF0.665
aF0.0
aF0.264
aF0.334
aF0.869
aF0.008
aF0.61
aF0.141
aF0.723
aF0.003
aF0.125
aF0.462
aF0.395
aF0.42
aF0.699
aF0.0
aF0.35
aF0.215
aF0.285
aF0.876
aF0.329
aF0.553
aF0.451
aF0.0
aF0.203
aF0.0
aF0.0
aF0.83
aF0.07
aF0.311
aF0.499
aF0.499
aF0.28
aF0.168
aF0.366
aF0.625
aF0.578
aF0.317
aF0.0
aF0.435
aF0.333
aF0.822
aF0.376
as.