(dp0
S'R4'
p1
(lp2
F0.288
aF0.057
aF0.147
aF0.583
aF0.141
aF0.071
aF0.042
aF0.141
aF0.251
aF0.055
aF0.3
aF0.051
aF0.085
aF0.203
aF0.063
aF0.149
aF0.015
aF0.05
aF0.115
aF0.027
aF0.184
aF0.18
aF0.053
aF0.02
aF0.118
aF0.1
aF0.291
aF0.043
aF0.008
aF0.217
aF0.143
aF0.28
aF0.182
aF0.07
aF0.087
aF0.017
aF0.0
aF0.197
aF0.248
aF0.031
aF0.051
aF0.283
aF0.083
aF0.096
aF0.012
aF0.019
aF0.214
aF0.002
aF0.035
aF0.176
aF0.122
aF0.144
aF0.025
aF0.45
aF0.074
aF0.074
aF0.082
aF0.038
aF0.476
aF0.202
aF0.202
aF0.1
aF0.058
aF0.104
aF0.533
aF0.194
aF0.128
aF0.509
aF0.308
aF0.83
aF0.149
aF0.222
aF0.63
aF0.539
aF0.137
aF0.164
aF0.307
aF0.388
aF0.395
aF0.154
aF0.472
aF0.138
aF0.202
aF0.56
aF0.091
aF0.482
aF0.165
aF0.67
aF0.079
aF0.135
aF0.076
aF0.268
aF0.02
aF0.43
aF0.564
aF0.556
aF0.071
aF0.174
aF0.087
aF0.24
aF0.074
aF0.412
aF0.785
aF0.283
aF0.112
aF0.208
aF0.253
aF0.061
aF0.229
aF0.158
aF0.74
aF0.15
aF0.172
aF0.611
aF0.552
aF0.669
aF0.566
aF0.185
aF0.326
aF0.832
asS'G4'
p3
(lp4
F0.017
aF0.083
aF0.241
aF0.562
aF0.159
aF0.221
aF0.055
aF0.159
aF0.25
aF0.143
aF0.37
aF0.025
aF0.164
aF0.108
aF0.119
aF0.176
aF0.464
aF0.017
aF0.032
aF0.028
aF0.125
aF0.06
aF0.077
aF0.029
aF0.081
aF0.092
aF0.363
aF0.009
aF0.369
aF0.208
aF0.141
aF0.216
aF0.248
aF0.038
aF0.082
aF0.006
aF0.0
aF0.277
aF0.05
aF0.055
aF0.066
aF0.71
aF0.177
aF0.054
aF0.217
aF0.308
aF0.233
aF0.081
aF0.171
aF0.111
aF0.114
aF0.049
aF0.077
aF0.177
aF0.242
aF0.154
aF0.109
aF0.07
aF0.141
aF0.193
aF0.103
aF0.009
aF0.001
aF0.009
aF0.448
aF0.066
aF0.021
aF0.469
aF0.07
aF0.666
aF0.045
aF0.133
aF0.462
aF0.468
aF0.012
aF0.066
aF0.11
aF0.295
aF0.258
aF0.111
aF0.454
aF0.038
aF0.145
aF0.42
aF0.022
aF0.318
aF0.062
aF0.479
aF0.03
aF0.029
aF0.005
aF0.221
aF0.014
aF0.287
aF0.427
aF0.49
aF0.046
aF0.027
aF0.04
aF0.076
aF0.012
aF0.222
aF0.719
aF0.063
aF0.08
aF0.059
aF0.096
aF0.026
aF0.116
aF0.064
aF0.614
aF0.125
aF0.061
aF0.462
aF0.522
aF0.623
aF0.521
aF0.072
aF0.262
aF0.667
asS'G3'
p5
(lp6
F0.239
aF0.499
aF0.473
aF0.4
aF0.364
aF0.285
aF0.033
aF0.373
aF0.263
aF0.282
aF0.188
aF0.252
aF0.339
aF0.51
aF0.329
aF0.346
aF0.077
aF0.105
aF0.203
aF0.194
aF0.238
aF0.242
aF0.268
aF0.129
aF0.172
aF0.165
aF0.156
aF0.287
aF0.288
aF0.211
aF0.344
aF0.278
aF0.25
aF0.407
aF0.178
aF0.088
aF0.718
aF0.299
aF0.154
aF0.494
aF0.366
aF0.287
aF0.154
aF0.49
aF0.285
aF0.365
aF0.141
aF0.358
aF0.208
aF0.241
aF0.109
aF0.529
aF0.45
aF0.355
aF0.436
aF0.575
aF0.41
aF0.221
aF0.326
aF0.132
aF0.504
aF0.159
aF0.063
aF0.129
aF0.219
aF0.152
aF0.402
aF0.166
aF0.676
aF0.199
aF0.122
aF0.598
aF0.19
aF0.206
aF0.109
aF0.553
aF0.218
aF0.197
aF0.176
aF0.333
aF0.071
aF0.308
aF0.252
aF0.198
aF0.498
aF0.172
aF0.521
aF0.202
aF0.128
aF0.187
aF0.092
aF0.173
aF0.126
aF0.227
aF0.241
aF0.073
aF0.082
aF0.181
aF0.109
aF0.51
aF0.291
aF0.253
aF0.092
aF0.237
aF0.488
aF0.215
aF0.368
aF0.328
aF0.308
aF0.112
aF0.239
aF0.097
aF0.497
aF0.446
aF0.159
aF0.083
aF0.087
aF0.16
aF0.223
aF0.145
asS'R2'
p7
(lp8
F0.204
aF0.173
aF0.181
aF0.219
aF0.442
aF0.275
aF0.158
aF0.38
aF0.354
aF0.43
aF0.255
aF0.415
aF0.321
aF0.378
aF0.274
aF0.458
aF0.256
aF0.703
aF0.377
aF0.226
aF0.237
aF0.318
aF0.366
aF0.289
aF0.292
aF0.334
aF0.231
aF0.335
aF0.267
aF0.394
aF0.285
aF0.312
aF0.388
aF0.283
aF0.299
aF0.394
aF0.412
aF0.303
aF0.183
aF0.564
aF0.384
aF0.139
aF0.442
aF0.315
aF0.386
aF0.488
aF0.147
aF0.451
aF0.154
aF0.269
aF0.118
aF0.38
aF0.296
aF0.209
aF0.451
aF0.247
aF0.242
aF0.34
aF0.073
aF0.173
aF0.052
aF0.059
aF0.618
aF0.478
aF0.13
aF0.207
aF0.078
aF0.072
aF0.1
aF0.024
aF0.426
aF0.16
aF0.051
aF0.115
aF0.326
aF0.182
aF0.291
aF0.152
aF0.298
aF0.414
aF0.18
aF0.222
aF0.262
aF0.225
aF0.23
aF0.038
aF0.308
aF0.184
aF0.454
aF0.069
aF0.185
aF0.138
aF0.493
aF0.28
aF0.158
aF0.025
aF0.133
aF0.277
aF0.173
aF0.053
aF0.306
aF0.305
aF0.113
aF0.219
aF0.308
aF0.297
aF0.251
aF0.434
aF0.187
aF0.181
aF0.056
aF0.21
aF0.221
aF0.027
aF0.088
aF0.071
aF0.234
aF0.092
aF0.304
aF0.048
asS'G1'
p9
(lp10
F0.407
aF0.13
aF0.054
aF0.01
aF0.12
aF0.262
aF0.537
aF0.131
aF0.161
aF0.153
aF0.194
aF0.188
aF0.199
aF0.101
aF0.289
aF0.057
aF0.148
aF0.181
aF0.296
aF0.353
aF0.374
aF0.399
aF0.246
aF0.416
aF0.325
aF0.411
aF0.066
aF0.335
aF0.053
aF0.195
aF0.203
aF0.186
aF0.118
aF0.223
aF0.408
aF0.44
aF0.063
aF0.076
aF0.337
aF0.057
aF0.3
aF0.0
aF0.146
aF0.051
aF0.187
aF0.105
aF0.501
aF0.15
aF0.138
aF0.444
aF0.201
aF0.055
aF0.162
aF0.254
aF0.101
aF0.133
aF0.096
aF0.216
aF0.355
aF0.443
aF0.301
aF0.56
aF0.303
aF0.353
aF0.112
aF0.572
aF0.372
aF0.237
aF0.135
aF0.09
aF0.695
aF0.084
aF0.1
aF0.202
aF0.757
aF0.191
aF0.413
aF0.263
aF0.187
aF0.158
aF0.307
aF0.455
aF0.347
aF0.139
aF0.256
aF0.463
aF0.141
aF0.194
aF0.365
aF0.631
aF0.709
aF0.462
aF0.373
aF0.272
aF0.103
aF0.39
aF0.521
aF0.6
aF0.61
aF0.21
aF0.445
aF0.201
aF0.072
aF0.582
aF0.155
aF0.416
aF0.194
aF0.18
aF0.32
aF0.596
aF0.06
aF0.507
aF0.187
aF0.017
aF0.233
aF0.21
aF0.078
aF0.612
aF0.315
aF0.1
asS'R3'
p11
(lp12
F0.239
aF0.085
aF0.215
aF0.19
aF0.212
aF0.212
aF0.016
aF0.281
aF0.162
aF0.234
aF0.228
aF0.214
aF0.228
aF0.213
aF0.343
aF0.336
aF0.47
aF0.081
aF0.174
aF0.081
aF0.2
aF0.165
aF0.145
aF0.077
aF0.155
aF0.141
aF0.11
aF0.286
aF0.282
aF0.193
aF0.532
aF0.221
aF0.164
aF0.389
aF0.145
aF0.088
aF0.476
aF0.247
aF0.237
aF0.159
aF0.31
aF0.398
aF0.132
aF0.511
aF0.198
aF0.367
aF0.131
aF0.253
aF0.196
aF0.163
aF0.098
aF0.451
aF0.121
aF0.24
aF0.111
aF0.522
aF0.231
aF0.127
aF0.146
aF0.142
aF0.472
aF0.15
aF0.05
aF0.094
aF0.188
aF0.075
aF0.455
aF0.17
aF0.501
aF0.066
aF0.186
aF0.522
aF0.254
aF0.166
aF0.104
aF0.524
aF0.113
aF0.171
aF0.235
aF0.317
aF0.107
aF0.216
aF0.246
aF0.105
aF0.444
aF0.032
aF0.382
aF0.132
aF0.149
aF0.18
aF0.127
aF0.133
aF0.129
aF0.226
aF0.259
aF0.04
aF0.121
aF0.096
aF0.161
aF0.498
aF0.286
aF0.26
aF0.08
aF0.049
aF0.466
aF0.225
aF0.381
aF0.31
aF0.087
aF0.063
aF0.165
aF0.263
aF0.435
aF0.354
aF0.158
aF0.065
aF0.088
aF0.143
aF0.226
aF0.108
asS'B2'
p13
(lp14
F0.098
aF0.207
aF0.029
aF0.059
aF0.083
aF0.214
aF0.475
aF0.28
aF0.175
aF0.295
aF0.169
aF0.268
aF0.36
aF0.353
aF0.268
aF0.316
aF0.237
aF0.6
aF0.59
aF0.175
aF0.197
aF0.278
aF0.147
aF0.235
aF0.435
aF0.351
aF0.189
aF0.277
aF0.104
aF0.15
aF0.202
aF0.36
aF0.153
aF0.298
aF0.238
aF0.085
aF0.063
aF0.234
aF0.554
aF0.154
aF0.176
aF0.016
aF0.454
aF0.23
aF0.262
aF0.156
aF0.13
aF0.168
aF0.201
aF0.226
aF0.24
aF0.35
aF0.093
aF0.389
aF0.089
aF0.126
aF0.198
aF0.283
aF0.226
aF0.105
aF0.117
aF0.506
aF0.661
aF0.539
aF0.17
aF0.197
aF0.532
aF0.132
aF0.147
aF0.134
aF0.139
aF0.142
aF0.198
aF0.128
aF0.068
aF0.192
aF0.305
aF0.253
aF0.307
aF0.387
aF0.247
aF0.194
aF0.2
aF0.262
aF0.209
aF0.061
aF0.141
aF0.131
aF0.516
aF0.156
aF0.173
aF0.158
aF0.493
aF0.213
aF0.159
aF0.072
aF0.447
aF0.192
aF0.155
aF0.586
aF0.235
aF0.155
aF0.1
aF0.127
aF0.199
aF0.236
aF0.413
aF0.496
aF0.279
aF0.333
aF0.15
aF0.166
aF0.351
aF0.265
aF0.111
aF0.098
aF0.331
aF0.167
aF0.33
aF0.12
asS'Label'
p15
(lp16
S'landscape'
p17
ag17
ag17
ag17
ag17
ag17
ag17
ag17
ag17
ag17
ag17
ag17
ag17
ag17
ag17
ag17
ag17
ag17
ag17
ag17
ag17
ag17
ag17
ag17
ag17
ag17
ag17
ag17
ag17
ag17
ag17
ag17
ag17
ag17
ag17
ag17
ag17
ag17
ag17
ag17
ag17
ag17
ag17
ag17
ag17
ag17
ag17
ag17
ag17
ag17
ag17
ag17
ag17
ag17
ag17
ag17
ag17
ag17
ag17
ag17
aS'headshots'
p18
ag18
ag18
ag18
ag18
ag18
ag18
ag18
ag18
ag18
ag18
ag18
ag18
ag18
ag18
ag18
ag18
ag18
ag18
ag18
ag18
ag18
ag18
ag18
ag18
ag18
ag18
ag18
ag18
ag18
ag18
ag18
ag18
ag18
ag18
ag18
ag18
ag18
ag18
ag18
ag18
ag18
ag18
ag18
ag18
ag18
ag18
ag18
ag18
ag18
ag18
ag18
ag18
ag18
ag18
ag18
ag18
ag18
ag18
ag18
asS'B4'
p19
(lp20
F0.002
aF0.51
aF0.641
aF0.037
aF0.218
aF0.404
aF0.111
aF0.272
aF0.267
aF0.205
aF0.403
aF0.017
aF0.022
aF0.087
aF0.291
aF0.219
aF0.526
aF0.003
aF0.005
aF0.325
aF0.258
aF0.19
aF0.241
aF0.079
aF0.028
aF0.142
aF0.37
aF0.069
aF0.463
aF0.172
aF0.304
aF0.097
aF0.397
aF0.01
aF0.015
aF0.001
aF0.067
aF0.422
aF0.0
aF0.207
aF0.091
aF0.669
aF0.273
aF0.053
aF0.494
aF0.422
aF0.146
aF0.411
aF0.478
aF0.016
aF0.046
aF0.136
aF0.274
aF0.059
aF0.658
aF0.249
aF0.448
aF0.28
aF0.048
aF0.2
aF0.115
aF0.006
aF0.001
aF0.003
aF0.401
aF0.013
aF0.019
aF0.466
aF0.027
aF0.581
aF0.03
aF0.26
aF0.443
aF0.454
aF0.006
aF0.101
aF0.027
aF0.27
aF0.249
aF0.085
aF0.436
aF0.001
aF0.172
aF0.334
aF0.06
aF0.226
aF0.322
aF0.463
aF0.03
aF0.103
aF0.0
aF0.193
aF0.014
aF0.27
aF0.449
aF0.489
aF0.049
aF0.0
aF0.033
aF0.031
aF0.035
aF0.179
aF0.692
aF0.003
aF0.243
aF0.005
aF0.016
aF0.033
aF0.165
aF0.021
aF0.498
aF0.127
aF0.024
aF0.392
aF0.495
aF0.621
aF0.521
aF0.062
aF0.251
aF0.637
asS'B1'
p21
(lp22
F0.896
aF0.064
aF0.108
aF0.007
aF0.484
aF0.242
aF0.02
aF0.291
aF0.289
aF0.172
aF0.296
aF0.231
aF0.25
aF0.143
aF0.169
aF0.058
aF0.067
aF0.258
aF0.274
aF0.193
aF0.32
aF0.328
aF0.311
aF0.425
aF0.35
aF0.297
aF0.381
aF0.321
aF0.24
aF0.536
aF0.335
aF0.214
aF0.319
aF0.233
aF0.699
aF0.898
aF0.058
aF0.026
aF0.424
aF0.077
aF0.382
aF0.004
aF0.086
aF0.258
aF0.132
aF0.156
aF0.488
aF0.248
aF0.116
aF0.475
aF0.097
aF0.212
aF0.192
aF0.328
aF0.049
aF0.122
aF0.019
aF0.336
aF0.551
aF0.644
aF0.315
aF0.391
aF0.328
aF0.351
aF0.151
aF0.621
aF0.399
aF0.251
aF0.15
aF0.112
aF0.767
aF0.048
aF0.205
aF0.208
aF0.843
aF0.172
aF0.497
aF0.239
aF0.339
aF0.185
aF0.241
aF0.475
aF0.357
aF0.143
aF0.249
aF0.466
aF0.117
aF0.282
aF0.373
aF0.629
aF0.788
aF0.452
aF0.325
aF0.358
aF0.234
aF0.4
aF0.45
aF0.701
aF0.723
aF0.115
aF0.473
aF0.464
aF0.112
aF0.616
aF0.146
aF0.629
aF0.375
aF0.144
aF0.311
aF0.532
aF0.101
aF0.632
aF0.152
aF0.034
aF0.251
aF0.218
aF0.068
aF0.641
aF0.177
aF0.111
asS'File'
p23
(lp24
S'landscape01.jpeg'
p25
aS'landscape02.jpeg'
p26
aS'landscape03.jpeg'
p27
aS'landscape04.jpeg'
p28
aS'landscape05.jpeg'
p29
aS'landscape06.jpeg'
p30
aS'landscape07.jpeg'
p31
aS'landscape08.jpeg'
p32
aS'landscape09.jpeg'
p33
aS'landscape10.jpeg'
p34
aS'landscape11.jpeg'
p35
aS'landscape12.jpeg'
p36
aS'landscape13.jpeg'
p37
aS'landscape14.jpeg'
p38
aS'landscape15.jpeg'
p39
aS'landscape16.jpeg'
p40
aS'landscape17.jpeg'
p41
aS'landscape18.jpeg'
p42
aS'landscape19.jpeg'
p43
aS'landscape20.jpeg'
p44
aS'landscape21.jpeg'
p45
aS'landscape22.jpeg'
p46
aS'landscape23.jpeg'
p47
aS'landscape24.jpeg'
p48
aS'landscape25.jpeg'
p49
aS'landscape26.jpeg'
p50
aS'landscape27.jpeg'
p51
aS'landscape28.jpeg'
p52
aS'landscape29.jpeg'
p53
aS'landscape30.jpeg'
p54
aS'landscape31.jpeg'
p55
aS'landscape32.jpeg'
p56
aS'landscape33.jpeg'
p57
aS'landscape34.jpeg'
p58
aS'landscape35.jpeg'
p59
aS'landscape36.jpeg'
p60
aS'landscape37.jpeg'
p61
aS'landscape38.jpeg'
p62
aS'landscape39.jpeg'
p63
aS'landscape40.jpeg'
p64
aS'landscape41.jpeg'
p65
aS'landscape42.jpeg'
p66
aS'landscape43.jpeg'
p67
aS'landscape44.jpeg'
p68
aS'landscape45.jpeg'
p69
aS'landscape46.jpeg'
p70
aS'landscape47.jpeg'
p71
aS'landscape48.jpeg'
p72
aS'landscape49.jpeg'
p73
aS'landscape50.jpeg'
p74
aS'landscape51.jpeg'
p75
aS'landscape52.jpeg'
p76
aS'landscape53.jpeg'
p77
aS'landscape54.jpeg'
p78
aS'landscape55.jpeg'
p79
aS'landscape56.jpeg'
p80
aS'landscape57.jpeg'
p81
aS'landscape58.jpeg'
p82
aS'landscape59.jpeg'
p83
aS'landscape60.jpeg'
p84
aS'headshot01.jpeg'
p85
aS'headshot02.jpeg'
p86
aS'headshot03.jpeg'
p87
aS'headshot04.jpeg'
p88
aS'headshot05.jpeg'
p89
aS'headshot06.jpeg'
p90
aS'headshot07.jpeg'
p91
aS'headshot08.jpeg'
p92
aS'headshot09.jpeg'
p93
aS'headshot10.jpeg'
p94
aS'headshot11.jpeg'
p95
aS'headshot12.jpeg'
p96
aS'headshot13.jpeg'
p97
aS'headshot14.jpeg'
p98
aS'headshot15.jpeg'
p99
aS'headshot16.jpeg'
p100
aS'headshot17.jpeg'
p101
aS'headshot18.jpeg'
p102
aS'headshot19.jpeg'
p103
aS'headshot20.jpeg'
p104
aS'headshot21.jpeg'
p105
aS'headshot22.jpeg'
p106
aS'headshot23.jpeg'
p107
aS'headshot24.jpeg'
p108
aS'headshot25.jpeg'
p109
aS'headshot26.jpeg'
p110
aS'headshot27.jpeg'
p111
aS'headshot28.jpeg'
p112
aS'headshot29.jpeg'
p113
aS'headshot30.jpeg'
p114
aS'headshot31.jpeg'
p115
aS'headshot32.jpeg'
p116
aS'headshot33.jpeg'
p117
aS'headshot34.jpeg'
p118
aS'headshot35.jpeg'
p119
aS'headshot36.jpeg'
p120
aS'headshot37.jpeg'
p121
aS'headshot38.jpeg'
p122
aS'headshot39.jpeg'
p123
aS'headshot40.jpeg'
p124
aS'headshot41.jpeg'
p125
aS'headshot42.jpeg'
p126
aS'headshot43.jpeg'
p127
aS'headshot44.jpeg'
p128
aS'headshot45.jpeg'
p129
aS'headshot46.jpeg'
p130
aS'headshot47.jpeg'
p131
aS'headshot48.jpeg'
p132
aS'headshot49.jpeg'
p133
aS'headshot50.jpeg'
p134
aS'headshot51.jpeg'
p135
aS'headshot52.jpeg'
p136
aS'headshot53.jpeg'
p137
aS'headshot54.jpeg'
p138
aS'headshot55.jpeg'
p139
aS'headshot56.jpeg'
p140
aS'headshot57.jpeg'
p141
aS'headshot58.jpeg'
p142
aS'headshot59.jpeg'
p143
aS'headshot60.jpeg'
p144
asS'B3'
p145
(lp146
F0.003
aF0.219
aF0.221
aF0.897
aF0.214
aF0.14
aF0.394
aF0.156
aF0.269
aF0.329
aF0.132
aF0.484
aF0.367
aF0.417
aF0.273
aF0.406
aF0.17
aF0.139
aF0.131
aF0.307
aF0.225
aF0.203
aF0.301
aF0.262
aF0.188
aF0.21
aF0.06
aF0.333
aF0.193
aF0.141
aF0.159
aF0.329
aF0.131
aF0.459
aF0.048
aF0.016
aF0.812
aF0.318
aF0.022
aF0.562
aF0.351
aF0.311
aF0.186
aF0.458
aF0.112
aF0.265
aF0.237
aF0.173
aF0.205
aF0.283
aF0.618
aF0.301
aF0.442
aF0.225
aF0.203
aF0.503
aF0.335
aF0.101
aF0.175
aF0.051
aF0.453
aF0.096
aF0.01
aF0.107
aF0.279
aF0.169
aF0.051
aF0.151
aF0.676
aF0.173
aF0.064
aF0.549
aF0.154
aF0.21
aF0.083
aF0.534
aF0.171
aF0.237
aF0.105
aF0.343
aF0.075
aF0.33
aF0.272
aF0.261
aF0.482
aF0.247
aF0.42
aF0.124
aF0.081
aF0.112
aF0.039
aF0.197
aF0.168
aF0.159
aF0.158
aF0.039
aF0.055
aF0.107
aF0.089
aF0.268
aF0.258
aF0.203
aF0.097
aF0.254
aF0.412
aF0.13
aF0.196
aF0.327
aF0.245
aF0.114
aF0.251
aF0.076
aF0.473
aF0.31
aF0.143
aF0.063
aF0.08
aF0.13
aF0.242
aF0.132
asS'G2'
p147
(lp148
F0.337
aF0.288
aF0.233
aF0.029
aF0.356
aF0.232
aF0.375
aF0.337
aF0.326
aF0.421
aF0.247
aF0.536
aF0.299
aF0.281
aF0.262
aF0.421
aF0.311
aF0.698
aF0.47
aF0.425
aF0.263
aF0.299
aF0.409
aF0.426
aF0.421
aF0.332
aF0.415
aF0.369
aF0.289
aF0.386
aF0.312
aF0.32
aF0.383
aF0.332
aF0.332
aF0.465
aF0.219
aF0.348
aF0.459
aF0.394
aF0.268
aF0.003
aF0.524
aF0.405
aF0.311
aF0.223
aF0.125
aF0.41
aF0.483
aF0.204
aF0.576
aF0.367
aF0.311
aF0.214
aF0.221
aF0.138
aF0.384
aF0.492
aF0.178
aF0.233
aF0.092
aF0.273
aF0.633
aF0.509
aF0.221
aF0.209
aF0.206
aF0.128
aF0.119
aF0.045
aF0.138
aF0.186
aF0.248
aF0.124
aF0.122
aF0.19
aF0.258
aF0.245
aF0.379
aF0.399
aF0.167
aF0.198
aF0.256
aF0.244
aF0.225
aF0.047
aF0.276
aF0.125
aF0.476
aF0.153
aF0.194
aF0.144
aF0.487
aF0.213
aF0.229
aF0.047
aF0.352
aF0.193
aF0.241
aF0.204
aF0.251
aF0.323
aF0.118
aF0.119
aF0.278
aF0.31
aF0.342
aF0.465
aF0.256
aF0.228
aF0.088
aF0.27
aF0.255
aF0.076
aF0.086
aF0.084
aF0.314
aF0.155
aF0.2
aF0.088
asS'R1'
p149
(lp150
F0.269
aF0.685
aF0.457
aF0.008
aF0.205
aF0.442
aF0.784
aF0.198
aF0.233
aF0.281
aF0.217
aF0.321
aF0.366
aF0.206
aF0.32
aF0.056
aF0.259
aF0.166
aF0.333
aF0.667
aF0.379
aF0.337
aF0.436
aF0.614
aF0.434
aF0.424
aF0.367
aF0.336
aF0.443
aF0.197
aF0.04
aF0.188
aF0.265
aF0.259
aF0.469
aF0.5
aF0.112
aF0.252
aF0.333
aF0.247
aF0.255
aF0.18
aF0.343
aF0.078
aF0.404
aF0.126
aF0.508
aF0.294
aF0.614
aF0.392
aF0.662
aF0.025
aF0.558
aF0.101
aF0.364
aF0.158
aF0.445
aF0.495
aF0.305
aF0.483
aF0.274
aF0.691
aF0.274
aF0.324
aF0.149
aF0.524
aF0.34
aF0.249
aF0.092
aF0.08
aF0.238
aF0.095
aF0.065
aF0.18
aF0.433
aF0.13
aF0.288
aF0.289
aF0.072
aF0.115
aF0.242
aF0.424
aF0.29
aF0.11
aF0.236
aF0.448
aF0.145
aF0.013
aF0.318
aF0.615
aF0.612
aF0.461
aF0.359
aF0.064
aF0.018
aF0.379
aF0.675
aF0.453
aF0.58
aF0.209
aF0.333
aF0.023
aF0.022
aF0.449
aF0.114
aF0.271
aF0.115
aF0.195
aF0.497
aF0.599
aF0.039
aF0.378
aF0.172
aF0.008
aF0.203
aF0.194
aF0.112
aF0.58
aF0.144
aF0.012
as.